BL51 BANKED LINKER/LOCATER V6.22.2.0                                                    06/22/2022  21:12:46  PAGE 1


BL51 BANKED LINKER/LOCATER V6.22.2.0, INVOKED BY:
C:\KEIL_V5\C51\BIN\BL51.EXE .\Objects\STARTUP.obj, .\Objects\zzjpro.obj TO .\Objects\Test PRINT (.\Listings\Test.m51) RA
>> MSIZE (256)


MEMORY MODEL: SMALL WITH FLOATING POINT ARITHMETIC


INPUT MODULES INCLUDED:
  .\Objects\STARTUP.obj (?C_STARTUP)
  .\Objects\zzjpro.obj (ZZJPRO)
  C:\KEIL_V5\C51\LIB\C51FPS.LIB (?C?FPMUL)
  C:\KEIL_V5\C51\LIB\C51FPS.LIB (?C?FPDIV)
  C:\KEIL_V5\C51\LIB\C51FPS.LIB (?C?FCAST)
  C:\KEIL_V5\C51\LIB\C51FPS.LIB (?C?CASTF)
  C:\KEIL_V5\C51\LIB\C51FPS.LIB (?C?FPGETOPN)
  C:\KEIL_V5\C51\LIB\C51S.LIB (?C_INIT)
  C:\KEIL_V5\C51\LIB\C51S.LIB (?C?CLDPTR)
  C:\KEIL_V5\C51\LIB\C51S.LIB (?C?LNEG)
  C:\KEIL_V5\C51\LIB\C51S.LIB (?C?ULCMP)
  C:\KEIL_V5\C51\LIB\C51S.LIB (?C?CCASE)


LINK MAP OF MODULE:  .\Objects\Test (?C_STARTUP)


            TYPE    BASE      LENGTH    RELOCATION   SEGMENT NAME
            -----------------------------------------------------

            * * * * * * *   D A T A   M E M O R Y   * * * * * * *
            REG     0000H     0008H     ABSOLUTE     "REG BANK 0"
                    0008H     0018H                  *** GAP ***
            BIT     0020H.0   0000H.1   UNIT         ?BI?ZZJPRO
            BIT     0020H.1   0000H.1   UNIT         _BIT_GROUP_
                    0020H.2   0000H.6                *** GAP ***
            DATA    0021H     001CH     UNIT         ?DT?ZZJPRO
            IDATA   003DH     0001H     UNIT         ?STACK

            * * * * * * *   C O D E   M E M O R Y   * * * * * * *
            CODE    0000H     0003H     ABSOLUTE     
                    0003H     0008H                  *** GAP ***
            CODE    000BH     0003H     ABSOLUTE     
                    000EH     0015H                  *** GAP ***
            CODE    0023H     0003H     ABSOLUTE     
                    0026H     07DAH                  *** GAP ***
            CODE    0800H     02C3H     UNIT         ?C?LIB_CODE
            CODE    0AC3H     0184H     UNIT         ?PR?CHUANXING?ZZJPRO
            CODE    0C47H     008CH     UNIT         ?C_C51STARTUP
            CODE    0CD3H     0077H     UNIT         ?PR?SER?ZZJPRO
            CODE    0D4AH     0052H     UNIT         ?PR?MATRIXKEYSCAN?ZZJPRO
            CODE    0D9CH     004FH     UNIT         ?PR?_MANIPULATOR?ZZJPRO
            CODE    0DEBH     003DH     UNIT         ?PR?COUNT?ZZJPRO
            CODE    0E28H     003AH     UNIT         ?CO?ZZJPRO
            CODE    0E62H     0033H     UNIT         ?PR?WIFI_INIT?ZZJPRO
            CODE    0E95H     002BH     UNIT         ?PR?_BITNUM?ZZJPRO
            CODE    0EC0H     0022H     UNIT         ?PR?_DELAY?ZZJPRO
            CODE    0EE2H     001EH     UNIT         ?PR?_DELAYMS?ZZJPRO
            CODE    0F00H     001DH     UNIT         ?PR?_SENT_AT?ZZJPRO
BL51 BANKED LINKER/LOCATER V6.22.2.0                                                  06/22/2022  21:12:46  PAGE 2


            CODE    0F1DH     001CH     UNIT         ?PR?RUN_ULTRASONIC?ZZJPRO
            CODE    0F39H     001AH     UNIT         ?PR?_SMGDISPLAY?ZZJPRO
            CODE    0F53H     0016H     UNIT         ?PR?_MOVE_X?ZZJPRO
            CODE    0F69H     0016H     UNIT         ?PR?_MOVE_Y?ZZJPRO
            CODE    0F7FH     0016H     UNIT         ?PR?_MOVE_Z?ZZJPRO
            CODE    0F95H     0015H     UNIT         ?PR?MAIN?ZZJPRO
            CODE    0FAAH     0013H     UNIT         ?PR?_SENDSTRING?ZZJPRO
            CODE    0FBDH     0012H     UNIT         ?PR?USART_INIT?ZZJPRO
            CODE    0FCFH     0011H     UNIT         ?PR?START?ZZJPRO
            CODE    0FE0H     000DH     UNIT         ?C_INITSEG
            CODE    0FEDH     000CH     UNIT         ?PR?INIT?ZZJPRO
            CODE    0FF9H     000BH     UNIT         ?PR?INIT_TIMER?ZZJPRO
            CODE    1004H     000AH     UNIT         ?PR?GRAB?ZZJPRO
            CODE    100EH     0008H     UNIT         ?PR?_SENDCHAR?ZZJPRO
            CODE    1016H     0007H     UNIT         ?PR?_DELAY_US?ZZJPRO
            CODE    101DH     0006H     UNIT         ?PR?_PUMP?ZZJPRO
            CODE    1023H     0003H     UNIT         ?PR?INTERRUPTTIMER0?ZZJPRO



OVERLAY MAP OF MODULE:   .\Objects\Test (?C_STARTUP)


SEGMENT                               BIT_GROUP 
  +--> CALLED SEGMENT              START    LENGTH
--------------------------------------------------
?C_C51STARTUP                      -----    -----
  +--> ?PR?MAIN?ZZJPRO
  +--> ?C_INITSEG

?PR?MAIN?ZZJPRO                    -----    -----
  +--> ?PR?INIT?ZZJPRO
  +--> ?PR?RUN_ULTRASONIC?ZZJPRO
  +--> ?PR?MATRIXKEYSCAN?ZZJPRO
  +--> ?PR?_MANIPULATOR?ZZJPRO
  +--> ?PR?CHUANXING?ZZJPRO

?PR?INIT?ZZJPRO                    -----    -----
  +--> ?PR?INIT_TIMER?ZZJPRO
  +--> ?PR?USART_INIT?ZZJPRO
  +--> ?PR?WIFI_INIT?ZZJPRO

?PR?WIFI_INIT?ZZJPRO               -----    -----
  +--> ?CO?ZZJPRO
  +--> ?PR?_SENT_AT?ZZJPRO
  +--> ?PR?_DELAYMS?ZZJPRO
  +--> ?PR?_SMGDISPLAY?ZZJPRO

?PR?_SENT_AT?ZZJPRO                -----    -----
  +--> ?PR?_DELAY_US?ZZJPRO

?PR?_SMGDISPLAY?ZZJPRO             -----    -----
  +--> ?CO?ZZJPRO

?PR?RUN_ULTRASONIC?ZZJPRO          -----    -----
  +--> ?PR?START?ZZJPRO
  +--> ?PR?COUNT?ZZJPRO
BL51 BANKED LINKER/LOCATER V6.22.2.0                                                  06/22/2022  21:12:46  PAGE 3


  +--> ?PR?_SMGDISPLAY?ZZJPRO

?PR?MATRIXKEYSCAN?ZZJPRO           -----    -----
  +--> ?PR?_BITNUM?ZZJPRO

?PR?_MANIPULATOR?ZZJPRO            -----    -----
  +--> ?PR?_MOVE_Z?ZZJPRO
  +--> ?PR?_MOVE_X?ZZJPRO
  +--> ?PR?_MOVE_Y?ZZJPRO
  +--> ?PR?GRAB?ZZJPRO

?PR?_MOVE_Z?ZZJPRO                 -----    -----
  +--> ?PR?_DELAY?ZZJPRO

?PR?_MOVE_X?ZZJPRO                 -----    -----
  +--> ?PR?_DELAY?ZZJPRO

?PR?_MOVE_Y?ZZJPRO                 -----    -----
  +--> ?PR?_DELAY?ZZJPRO

?PR?GRAB?ZZJPRO                    0020H.1  0000H.1

?PR?CHUANXING?ZZJPRO               -----    -----
  +--> ?PR?RUN_ULTRASONIC?ZZJPRO
  +--> ?PR?_MOVE_Z?ZZJPRO
  +--> ?PR?GRAB?ZZJPRO
  +--> ?PR?_DELAYMS?ZZJPRO
  +--> ?PR?_PUMP?ZZJPRO
  +--> ?PR?_MOVE_Y?ZZJPRO
  +--> ?PR?_MOVE_X?ZZJPRO

*** NEW ROOT ***************************************************

?PR?SER?ZZJPRO                     -----    -----
  +--> ?PR?_SMGDISPLAY?ZZJPRO



SYMBOL TABLE OF MODULE:  .\Objects\Test (?C_STARTUP)

  VALUE           TYPE          NAME
  ----------------------------------

  -------         MODULE        ?C_STARTUP
  C:0C47H         SEGMENT       ?C_C51STARTUP
  I:003DH         SEGMENT       ?STACK
  C:0000H         PUBLIC        ?C_STARTUP
  D:00E0H         SYMBOL        ACC
  D:00F0H         SYMBOL        B
  D:0083H         SYMBOL        DPH
  D:0082H         SYMBOL        DPL
  N:0000H         SYMBOL        IBPSTACK
  N:0100H         SYMBOL        IBPSTACKTOP
  N:0080H         SYMBOL        IDATALEN
  C:0C4AH         SYMBOL        IDATALOOP
  N:0000H         SYMBOL        PBPSTACK
  N:0100H         SYMBOL        PBPSTACKTOP
BL51 BANKED LINKER/LOCATER V6.22.2.0                                                  06/22/2022  21:12:46  PAGE 4


  N:0000H         SYMBOL        PDATALEN
  N:0000H         SYMBOL        PDATASTART
  N:0000H         SYMBOL        PPAGE
  N:0000H         SYMBOL        PPAGEENABLE
  D:00A0H         SYMBOL        PPAGE_SFR
  D:0081H         SYMBOL        SP
  C:0C47H         SYMBOL        STARTUP1
  N:0000H         SYMBOL        XBPSTACK
  N:0000H         SYMBOL        XBPSTACKTOP
  N:0000H         SYMBOL        XDATALEN
  N:0000H         SYMBOL        XDATASTART
  C:0000H         LINE#         126
  C:0C47H         LINE#         133
  C:0C49H         LINE#         134
  C:0C4AH         LINE#         135
  C:0C4BH         LINE#         136
  C:0C4DH         LINE#         185
  C:0C50H         LINE#         196
  -------         ENDMOD        ?C_STARTUP

  -------         MODULE        ZZJPRO
  C:0000H         SYMBOL        _ICE_DUMMY_
  D:0080H         PUBLIC        P0
  D:0090H         PUBLIC        P1
  B:0020H.0       PUBLIC        eflag
  D:00A0H         PUBLIC        P2
  C:0F1DH         PUBLIC        run_ultrasonic
  D:00B0H         PUBLIC        P3
  B:0090H.2       PUBLIC        pulse_x
  B:0090H.4       PUBLIC        pulse_y
  B:00A8H.7       PUBLIC        EA
  B:0090H.6       PUBLIC        pulse_z
  C:1023H         PUBLIC        InterruptTimer0
  C:0FBDH         PUBLIC        Usart_Init
  B:0090H.0       PUBLIC        in1
  B:0090H.1       PUBLIC        in2
  C:0D4AH         PUBLIC        matrixkeyscan
  D:00A8H         PUBLIC        IE
  C:0F53H         PUBLIC        _move_x
  C:0EC4H         PUBLIC        _delay
  C:0F69H         PUBLIC        _move_y
  C:0E95H         PUBLIC        _bitnum
  C:0F7FH         PUBLIC        _move_z
  C:0E4CH         PUBLIC        table_dula
  C:0FEDH         PUBLIC        Init
  C:0E5CH         PUBLIC        table_wela
  B:00A8H.4       PUBLIC        ES
  B:0090H.3       PUBLIC        dir_x
  D:00B8H         PUBLIC        IP
  B:0090H.5       PUBLIC        dir_y
  C:0FF9H         PUBLIC        Init_timer
  B:0090H.7       PUBLIC        dir_z
  B:0098H.0       PUBLIC        RI
  D:0021H         PUBLIC        flag
  D:0022H         PUBLIC        rline
  B:0098H.1       PUBLIC        TI
  C:1004H         PUBLIC        grab
BL51 BANKED LINKER/LOCATER V6.22.2.0                                                  06/22/2022  21:12:46  PAGE 5


  B:00A0H.0       PUBLIC        relay
  B:00A0H.5       PUBLIC        echo
  C:0F95H         PUBLIC        main
  C:0E62H         PUBLIC        WIFI_Init
  C:0FAAH         PUBLIC        _sendString
  B:00A0H.6       PUBLIC        dula
  B:00A0H.7       PUBLIC        wela
  C:0DEBH         PUBLIC        count
  C:100EH         PUBLIC        _sendChar
  B:00A0H.3       PUBLIC        bee
  C:0FCFH         PUBLIC        start
  D:0023H         PUBLIC        time
  D:0099H         PUBLIC        SBUF
  D:0087H         PUBLIC        PCON
  C:0D9CH         PUBLIC        _manipulator
  D:0098H         PUBLIC        SCON
  D:0089H         PUBLIC        TMOD
  D:0088H         PUBLIC        TCON
  B:00A0H.4       PUBLIC        trig
  C:0F39H         PUBLIC        _smgdisplay
  C:101DH         PUBLIC        _pump
  B:00A8H.1       PUBLIC        ET0
  C:0CD3H         PUBLIC        ser
  C:0AC3H         PUBLIC        chuanxing
  D:008CH         PUBLIC        TH0
  D:0025H         PUBLIC        Recive_table
  D:008DH         PUBLIC        TH1
  D:008AH         PUBLIC        TL0
  C:0F00H         PUBLIC        _SENT_At
  D:008BH         PUBLIC        TL1
  B:0088H.4       PUBLIC        TR0
  B:0088H.6       PUBLIC        TR1
  C:1016H         PUBLIC        _delay_us
  D:0034H         PUBLIC        a
  D:00C8H         PUBLIC        T2CON
  D:0035H         PUBLIC        i
  D:0037H         PUBLIC        temp1
  D:0039H         PUBLIC        s
  C:0EE2H         PUBLIC        _delayms
  D:00D0H         PUBLIC        PSW
  -------         PROC          MAIN
  -------         DO            
  D:0007H         SYMBOL        value
  -------         ENDDO         
  C:0F95H         LINE#         61
  C:0F95H         LINE#         62
  C:0F95H         LINE#         64
  C:0F98H         LINE#         65
  C:0F9BH         LINE#         66
  C:0F9BH         LINE#         67
  C:0F9BH         LINE#         68
  C:0F9FH         LINE#         69
  C:0F9FH         LINE#         70
  C:0FA2H         LINE#         71
  C:0FA5H         LINE#         72
  C:0FA5H         LINE#         73
  C:0FA8H         LINE#         74
BL51 BANKED LINKER/LOCATER V6.22.2.0                                                  06/22/2022  21:12:46  PAGE 6


  -------         ENDPROC       MAIN
  -------         PROC          _DELAY_US
  D:0007H         SYMBOL        us
  C:1016H         LINE#         77
  C:1016H         LINE#         78
  C:1016H         LINE#         79
  C:101CH         LINE#         80
  -------         ENDPROC       _DELAY_US
  -------         PROC          _DELAYMS
  D:0006H         SYMBOL        xms
  -------         DO            
  D:0006H         SYMBOL        i
  D:0004H         SYMBOL        j
  -------         ENDDO         
  C:0EE2H         LINE#         83
  C:0EE2H         LINE#         84
  C:0EE2H         LINE#         86
  C:0EEBH         LINE#         87
  C:0EFFH         LINE#         88
  -------         ENDPROC       _DELAYMS
  C:0EC0H         SYMBOL        L?0135
  -------         PROC          L?0134
  -------         ENDPROC       L?0134
  C:0EC0H         SYMBOL        L?0135
  -------         PROC          _DELAY
  D:0006H         SYMBOL        x
  -------         DO            
  D:0006H         SYMBOL        i
  D:0004H         SYMBOL        j
  -------         ENDDO         
  C:0EC4H         LINE#         90
  C:0EC4H         LINE#         91
  C:0EC4H         LINE#         93
  C:0ECDH         LINE#         94
  C:0EE1H         LINE#         95
  -------         ENDPROC       _DELAY
  -------         PROC          _BITNUM
  D:0006H         SYMBOL        num
  C:0E95H         LINE#         96
  C:0E95H         LINE#         97
  C:0E95H         LINE#         98
  C:0EA8H         LINE#         99
  C:0EA8H         LINE#         100
  C:0EADH         LINE#         101
  C:0EADH         LINE#         102
  C:0EB2H         LINE#         103
  C:0EB2H         LINE#         104
  C:0EB7H         LINE#         105
  C:0EB7H         LINE#         106
  C:0EBCH         LINE#         107
  C:0EBCH         LINE#         108
  C:0EBCH         LINE#         109
  C:0EBFH         LINE#         110
  -------         ENDPROC       _BITNUM
  -------         PROC          MATRIXKEYSCAN
  -------         DO            
  D:0007H         SYMBOL        temp
BL51 BANKED LINKER/LOCATER V6.22.2.0                                                  06/22/2022  21:12:46  PAGE 7


  D:0006H         SYMBOL        key
  D:0006H         SYMBOL        rnum
  D:0004H         SYMBOL        cnum
  -------         ENDDO         
  C:0D4AH         LINE#         112
  C:0D4AH         LINE#         113
  C:0D4AH         LINE#         114
  C:0D4BH         LINE#         115
  C:0D4CH         LINE#         118
  C:0D54H         LINE#         119
  C:0D56H         LINE#         120
  C:0D59H         LINE#         121
  C:0D5EH         LINE#         122
  C:0D5EH         LINE#         124
  C:0D60H         LINE#         125
  C:0D63H         LINE#         127
  C:0D68H         LINE#         128
  C:0D68H         LINE#         129
  C:0D74H         LINE#         130
  C:0D76H         LINE#         131
  C:0D79H         LINE#         132
  C:0D7EH         LINE#         133
  C:0D88H         LINE#         134
  C:0D8AH         LINE#         135
  C:0D8CH         LINE#         136
  C:0D8CH         LINE#         137
  C:0D8CH         LINE#         138
  C:0D99H         LINE#         139
  C:0D9BH         LINE#         140
  -------         ENDPROC       MATRIXKEYSCAN
  -------         PROC          _MOVE_X
  D:0007H         SYMBOL        dir
  C:0F53H         LINE#         142
  C:0F53H         LINE#         143
  C:0F53H         LINE#         144
  C:0F58H         LINE#         145
  C:0F5BH         LINE#         146
  C:0F5DH         LINE#         147
  C:0F60H         LINE#         148
  C:0F62H         LINE#         149
  -------         ENDPROC       _MOVE_X
  -------         PROC          _MOVE_Y
  D:0007H         SYMBOL        dir
  C:0F69H         LINE#         151
  C:0F69H         LINE#         152
  C:0F69H         LINE#         153
  C:0F6EH         LINE#         154
  C:0F71H         LINE#         155
  C:0F73H         LINE#         156
  C:0F76H         LINE#         157
  C:0F78H         LINE#         158
  -------         ENDPROC       _MOVE_Y
  -------         PROC          _MOVE_Z
  D:0007H         SYMBOL        dir
  C:0F7FH         LINE#         161
  C:0F7FH         LINE#         162
  C:0F7FH         LINE#         163
BL51 BANKED LINKER/LOCATER V6.22.2.0                                                  06/22/2022  21:12:46  PAGE 8


  C:0F84H         LINE#         164
  C:0F87H         LINE#         165
  C:0F89H         LINE#         166
  C:0F8CH         LINE#         167
  C:0F8EH         LINE#         168
  -------         ENDPROC       _MOVE_Z
  -------         PROC          GRAB
  B:0020H.1       SYMBOL        dir
  C:1004H         LINE#         171
  C:1004H         LINE#         172
  C:1004H         LINE#         173
  C:100DH         LINE#         174
  -------         ENDPROC       GRAB
  -------         PROC          _PUMP
  D:0007H         SYMBOL        sta
  C:101DH         LINE#         176
  C:101DH         LINE#         177
  C:101DH         LINE#         178
  C:1022H         LINE#         179
  -------         ENDPROC       _PUMP
  -------         PROC          _MANIPULATOR
  D:0007H         SYMBOL        dir
  C:0D9CH         LINE#         181
  C:0D9CH         LINE#         182
  C:0D9CH         LINE#         183
  C:0DBFH         LINE#         184
  C:0DBFH         LINE#         185
  C:0DBFH         LINE#         186
  C:0DC3H         LINE#         187
  C:0DC5H         LINE#         188
  C:0DC6H         LINE#         189
  C:0DC6H         LINE#         190
  C:0DC8H         LINE#         191
  C:0DCAH         LINE#         192
  C:0DCAH         LINE#         193
  C:0DCCH         LINE#         194
  C:0DCEH         LINE#         195
  C:0DCEH         LINE#         196
  C:0DD3H         LINE#         197
  C:0DD3H         LINE#         198
  C:0DD3H         LINE#         199
  C:0DD5H         LINE#         200
  C:0DD7H         LINE#         201
  C:0DD7H         LINE#         202
  C:0DD9H         LINE#         203
  C:0DDBH         LINE#         204
  C:0DDBH         LINE#         205
  C:0DE0H         LINE#         206
  C:0DE0H         LINE#         207
  C:0DE0H         LINE#         208
  C:0DE5H         LINE#         209
  C:0DE5H         LINE#         210
  C:0DE5H         LINE#         211
  C:0DEAH         LINE#         212
  C:0DEAH         LINE#         213
  C:0DEAH         LINE#         214
  -------         ENDPROC       _MANIPULATOR
BL51 BANKED LINKER/LOCATER V6.22.2.0                                                  06/22/2022  21:12:46  PAGE 9


  -------         PROC          CHUANXING
  C:0AC3H         LINE#         216
  C:0AC3H         LINE#         217
  C:0AC3H         LINE#         218
  C:0ACCH         LINE#         219
  C:0ACCH         LINE#         220
  C:0ACEH         LINE#         221
  C:0AF7H         LINE#         222
  C:0AF7H         LINE#         223
  C:0AF7H         LINE#         225
  C:0B0EH         LINE#         226
  C:0B0EH         LINE#         227
  C:0B18H         LINE#         228
  C:0B18H         LINE#         229
  C:0B1BH         LINE#         230
  C:0B20H         LINE#         231
  C:0B20H         LINE#         232
  C:0B28H         LINE#         233
  C:0B2DH         LINE#         234
  C:0B2FH         LINE#         236
  C:0B46H         LINE#         237
  C:0B46H         LINE#         238
  C:0B52H         LINE#         239
  C:0B52H         LINE#         240
  C:0B52H         LINE#         241
  C:0B57H         LINE#         242
  C:0B5EH         LINE#         243
  C:0B62H         LINE#         244
  C:0B64H         LINE#         245
  C:0B64H         LINE#         246
  C:0B69H         LINE#         247
  C:0B70H         LINE#         248
  C:0B75H         LINE#         249
  C:0B75H         LINE#         250
  C:0B75H         LINE#         251
  C:0B7AH         LINE#         253
  C:0B8EH         LINE#         254
  C:0B8EH         LINE#         255
  C:0B99H         LINE#         256
  C:0B99H         LINE#         257
  C:0B9CH         LINE#         258
  C:0BA1H         LINE#         259
  C:0BA1H         LINE#         260
  C:0BA9H         LINE#         261
  C:0BAEH         LINE#         262
  C:0BB0H         LINE#         263
  C:0BC7H         LINE#         264
  C:0BC7H         LINE#         265
  C:0BCCH         LINE#         266
  C:0BD3H         LINE#         267
  C:0BD7H         LINE#         268
  C:0BD9H         LINE#         269
  C:0BD9H         LINE#         270
  C:0BD9H         LINE#         271
  C:0BDAH         LINE#         272
  C:0BDAH         LINE#         273
  C:0BDEH         LINE#         274
BL51 BANKED LINKER/LOCATER V6.22.2.0                                                  06/22/2022  21:12:46  PAGE 10


  C:0BDEH         LINE#         275
  C:0BE3H         LINE#         276
  C:0BE5H         LINE#         277
  C:0BE5H         LINE#         278
  C:0BE5H         LINE#         279
  C:0BE9H         LINE#         280
  C:0BE9H         LINE#         281
  C:0BEDH         LINE#         282
  C:0BEFH         LINE#         283
  C:0BEFH         LINE#         284
  C:0BEFH         LINE#         285
  C:0BF3H         LINE#         286
  C:0BF3H         LINE#         287
  C:0BF8H         LINE#         288
  C:0BFAH         LINE#         289
  C:0BFAH         LINE#         290
  C:0BFAH         LINE#         291
  C:0BFEH         LINE#         292
  C:0BFEH         LINE#         293
  C:0C03H         LINE#         294
  C:0C08H         LINE#         295
  C:0C0AH         LINE#         296
  C:0C0AH         LINE#         297
  C:0C0AH         LINE#         298
  C:0C0EH         LINE#         299
  C:0C0EH         LINE#         300
  C:0C12H         LINE#         301
  C:0C17H         LINE#         302
  C:0C19H         LINE#         303
  C:0C19H         LINE#         304
  C:0C19H         LINE#         305
  C:0C1DH         LINE#         306
  C:0C1DH         LINE#         307
  C:0C21H         LINE#         308
  C:0C23H         LINE#         309
  C:0C23H         LINE#         310
  C:0C23H         LINE#         311
  C:0C27H         LINE#         312
  C:0C27H         LINE#         313
  C:0C2CH         LINE#         314
  C:0C31H         LINE#         315
  C:0C33H         LINE#         316
  C:0C33H         LINE#         317
  C:0C33H         LINE#         318
  C:0C37H         LINE#         319
  C:0C37H         LINE#         320
  C:0C3BH         LINE#         321
  C:0C40H         LINE#         322
  C:0C42H         LINE#         323
  C:0C42H         LINE#         324
  C:0C42H         LINE#         325
  C:0C46H         LINE#         326
  C:0C46H         LINE#         327
  C:0C46H         LINE#         328
  C:0C46H         LINE#         329
  -------         ENDPROC       CHUANXING
  -------         PROC          _SMGDISPLAY
BL51 BANKED LINKER/LOCATER V6.22.2.0                                                  06/22/2022  21:12:46  PAGE 11


  D:0007H         SYMBOL        num
  D:0005H         SYMBOL        loc
  C:0F39H         LINE#         331
  C:0F39H         LINE#         332
  C:0F39H         LINE#         333
  C:0F3BH         LINE#         334
  C:0F42H         LINE#         335
  C:0F44H         LINE#         336
  C:0F47H         LINE#         337
  C:0F49H         LINE#         338
  C:0F50H         LINE#         339
  C:0F52H         LINE#         340
  -------         ENDPROC       _SMGDISPLAY
  -------         PROC          START
  C:0FCFH         LINE#         342
  C:0FCFH         LINE#         343
  C:0FCFH         LINE#         344
  C:0FD1H         LINE#         345
  C:0FD2H         LINE#         346
  C:0FD3H         LINE#         347
  C:0FD4H         LINE#         348
  C:0FD5H         LINE#         349
  C:0FD6H         LINE#         350
  C:0FD7H         LINE#         351
  C:0FD8H         LINE#         352
  C:0FD9H         LINE#         353
  C:0FDAH         LINE#         354
  C:0FDBH         LINE#         355
  C:0FDCH         LINE#         356
  C:0FDDH         LINE#         357
  C:0FDFH         LINE#         358
  -------         ENDPROC       START
  -------         PROC          COUNT
  C:0DEBH         LINE#         360
  C:0DEBH         LINE#         361
  C:0DEBH         LINE#         362
  C:0DFBH         LINE#         363
  C:0E22H         LINE#         364
  C:0E25H         LINE#         365
  C:0E27H         LINE#         366
  -------         ENDPROC       COUNT
  -------         PROC          RUN_ULTRASONIC
  C:0F1DH         LINE#         368
  C:0F1DH         LINE#         369
  C:0F1DH         LINE#         370
  C:0F20H         LINE#         371
  C:0F23H         LINE#         372
  C:0F25H         LINE#         373
  C:0F2BH         LINE#         374
  C:0F2DH         LINE#         375
  C:0F2FH         LINE#         376
  C:0F32H         LINE#         377
  -------         ENDPROC       RUN_ULTRASONIC
  -------         PROC          _SENDCHAR
  D:0007H         SYMBOL        a
  C:100EH         LINE#         383
  C:100EH         LINE#         384
BL51 BANKED LINKER/LOCATER V6.22.2.0                                                  06/22/2022  21:12:46  PAGE 12


  C:100EH         LINE#         385
  C:1010H         LINE#         386
  C:1013H         LINE#         387
  C:1015H         LINE#         389
  -------         ENDPROC       _SENDCHAR
  -------         PROC          _SENDSTRING
  D:0001H         SYMBOL        s
  C:0FAAH         LINE#         392
  C:0FAAH         LINE#         393
  C:0FAAH         LINE#         394
  C:0FB0H         LINE#         395
  C:0FB0H         LINE#         396
  C:0FB3H         LINE#         397
  C:0FBAH         LINE#         398
  C:0FBCH         LINE#         400
  -------         ENDPROC       _SENDSTRING
  -------         PROC          INIT_TIMER
  C:0FF9H         LINE#         403
  C:0FF9H         LINE#         404
  C:0FF9H         LINE#         405
  C:0FFCH         LINE#         406
  C:0FFFH         LINE#         407
  C:1001H         LINE#         408
  C:1003H         LINE#         409
  -------         ENDPROC       INIT_TIMER
  -------         PROC          USART_INIT
  C:0FBDH         LINE#         413
  C:0FBDH         LINE#         414
  C:0FBDH         LINE#         415
  C:0FC0H         LINE#         416
  C:0FC3H         LINE#         417
  C:0FC6H         LINE#         418
  C:0FC9H         LINE#         419
  C:0FCCH         LINE#         420
  C:0FCEH         LINE#         422
  -------         ENDPROC       USART_INIT
  -------         PROC          _SENT_AT
  D:0001H         SYMBOL        At_Comd
  C:0F00H         LINE#         424
  C:0F00H         LINE#         425
  C:0F00H         LINE#         426
  C:0F02H         LINE#         427
  C:0F07H         LINE#         428
  C:0F07H         LINE#         429
  C:0F09H         LINE#         430
  C:0F0CH         LINE#         431
  C:0F0EH         LINE#         432
  C:0F13H         LINE#         433
  C:0F1AH         LINE#         434
  C:0F1CH         LINE#         435
  -------         ENDPROC       _SENT_AT
  -------         PROC          WIFI_INIT
  C:0E62H         LINE#         437
  C:0E62H         LINE#         438
  C:0E62H         LINE#         439
  C:0E6BH         LINE#         440
  C:0E72H         LINE#         441
BL51 BANKED LINKER/LOCATER V6.22.2.0                                                  06/22/2022  21:12:46  PAGE 13


  C:0E74H         LINE#         443
  C:0E7BH         LINE#         444
  C:0E82H         LINE#         445
  C:0E89H         LINE#         446
  C:0E8BH         LINE#         447
  C:0E92H         LINE#         448
  C:0E94H         LINE#         449
  -------         ENDPROC       WIFI_INIT
  -------         PROC          INIT
  C:0FEDH         LINE#         453
  C:0FEDH         LINE#         454
  C:0FEDH         LINE#         455
  C:0FF0H         LINE#         456
  C:0FF3H         LINE#         457
  C:0FF6H         LINE#         459
  C:0FF8H         LINE#         460
  -------         ENDPROC       INIT
  -------         PROC          INTERRUPTTIMER0
  C:1023H         LINE#         462
  C:1023H         LINE#         464
  C:1025H         LINE#         465
  -------         ENDPROC       INTERRUPTTIMER0
  -------         PROC          SER
  C:0CD3H         LINE#         468
  C:0CE4H         LINE#         471
  C:0CE7H         LINE#         472
  C:0CE7H         LINE#         473
  C:0CE9H         LINE#         474
  C:0CF0H         LINE#         475
  C:0CF5H         LINE#         476
  C:0CFFH         LINE#         478
  C:0D05H         LINE#         479
  C:0D10H         LINE#         480
  C:0D10H         LINE#         481
  C:0D24H         LINE#         482
  C:0D24H         LINE#         483
  C:0D27H         LINE#         484
  C:0D2EH         LINE#         485
  C:0D31H         LINE#         486
  C:0D31H         LINE#         487
  C:0D37H         LINE#         488
  C:0D37H         LINE#         489
  C:0D39H         LINE#         491
  C:0D3BH         LINE#         493
  -------         ENDPROC       SER
  -------         ENDMOD        ZZJPRO

  -------         MODULE        ?C?FPMUL
  C:0800H         PUBLIC        ?C?FPMUL
  -------         ENDMOD        ?C?FPMUL

  -------         MODULE        ?C?FPDIV
  C:0909H         PUBLIC        ?C?FPDIV
  -------         ENDMOD        ?C?FPDIV

  -------         MODULE        ?C?FCAST
  C:09B0H         PUBLIC        ?C?FCASTC
BL51 BANKED LINKER/LOCATER V6.22.2.0                                                  06/22/2022  21:12:46  PAGE 14


  C:09ABH         PUBLIC        ?C?FCASTI
  C:09A6H         PUBLIC        ?C?FCASTL
  -------         ENDMOD        ?C?FCAST

  -------         MODULE        ?C?CASTF
  C:09E4H         PUBLIC        ?C?CASTF
  -------         ENDMOD        ?C?CASTF

  -------         MODULE        ?C?CLDPTR
  C:0A65H         PUBLIC        ?C?CLDPTR
  -------         ENDMOD        ?C?CLDPTR

  -------         MODULE        ?C?LNEG
  C:0A7EH         PUBLIC        ?C?LNEG
  -------         ENDMOD        ?C?LNEG

  -------         MODULE        ?C?ULCMP
  C:0A8CH         PUBLIC        ?C?ULCMP
  -------         ENDMOD        ?C?ULCMP

  -------         MODULE        ?C?CCASE
  C:0A9DH         PUBLIC        ?C?CCASE
  -------         ENDMOD        ?C?CCASE

*** WARNING L16: UNCALLED SEGMENT, IGNORED FOR OVERLAY PROCESS
    SEGMENT: ?PR?_SENDSTRING?ZZJPRO

******************************************************************************
* RESTRICTED VERSION WITH 0800H BYTE CODE SIZE LIMIT; USED: 04EBH BYTE (61%) *
******************************************************************************

Program Size: data=37.2 xdata=0 code=2095
LINK/LOCATE RUN COMPLETE.  1 WARNING(S),  0 ERROR(S)
